; Function Attrs: nounwind sspstrong uwtable
define internal fastcc void @init_copy(i64 noundef %0, i64 noundef %1) unnamed_addr #2 {
  %3 = icmp eq i64 %0, 0
  %4 = and i64 %0, 7
  %5 = icmp ne i64 %4, 0
  %6 = or i1 %3, %5
  br i1 %6, label %RB_OBJ_FROZEN.exit.thread, label %RB_FL_ABLE.exit.i

RB_FL_ABLE.exit.i:                                ; preds = %2
  %7 = inttoptr i64 %0 to ptr
  %8 = load i64, ptr %7, align 8, !tbaa !24
  %9 = and i64 %8, 31
  %.not.i = icmp eq i64 %9, 27
  %10 = and i64 %8, 2048
  %11 = icmp ne i64 %10, 0
  %or.cond = or i1 %.not.i, %11
  br i1 %or.cond, label %RB_OBJ_FROZEN.exit.thread, label %14

RB_OBJ_FROZEN.exit.thread:                        ; preds = %2, %RB_FL_ABLE.exit.i
  %12 = load i64, ptr @rb_eTypeError, align 8, !tbaa !7
  %13 = tail call ptr @rb_obj_classname(i64 noundef %0) #23
  tail call void (i64, ptr, ...) @rb_raise(i64 noundef %12, ptr noundef nonnull @.str.140, ptr noundef %13) #24
  unreachable

14:                                               ; preds = %RB_FL_ABLE.exit.i
  %15 = and i64 %8, -3104
  store i64 %15, ptr %7, align 8, !tbaa !24
  %16 = inttoptr i64 %1 to ptr
  %17 = load i64, ptr %16, align 8, !tbaa !24
  %18 = and i64 %17, 1055
  %19 = or disjoint i64 %18, %15
  store i64 %19, ptr %7, align 8, !tbaa !24
  tail call void @rb_gc_copy_attributes(i64 noundef %0, i64 noundef %1) #23
  tail call void @rb_copy_generic_ivar(i64 noundef %0, i64 noundef %1) #23
  %20 = icmp eq i64 %1, 0
  %21 = and i64 %1, 7
  %22 = icmp ne i64 %21, 0
  %23 = or i1 %20, %22
  br i1 %23, label %rbimpl_RB_TYPE_P_fastpath.exit.thread, label %rbimpl_RB_TYPE_P_fastpath.exit

rbimpl_RB_TYPE_P_fastpath.exit:                   ; preds = %14
  %24 = load i64, ptr %16, align 8, !tbaa !24
  %25 = and i64 %24, 31
  %26 = icmp eq i64 %25, 1
  br i1 %26, label %27, label %rbimpl_RB_TYPE_P_fastpath.exit.thread

27:                                               ; preds = %rbimpl_RB_TYPE_P_fastpath.exit
  tail call void @rb_obj_copy_ivar(i64 noundef %0, i64 noundef %1)
  br label %rbimpl_RB_TYPE_P_fastpath.exit.thread

rbimpl_RB_TYPE_P_fastpath.exit.thread:            ; preds = %14, %27, %rbimpl_RB_TYPE_P_fastpath.exit
  ret void
}